; ModuleID = '54/201.c'
source_filename = "54/201.c"
target datalayout = "e-m:e-p270:32:32-p271:32:32-p272:64:64-i64:64-f80:128-n8:16:32:64-S128"
target triple = "x86_64-pc-linux-gnu"

@.str = private unnamed_addr constant [6 x i8] c"%d %d\00", align 1
@.str.1 = private unnamed_addr constant [3 x i8] c"%d\00", align 1

; Function Attrs: noinline nounwind uwtable
define dso_local void @main() #0 {
  %1 = alloca i32, align 4
  %2 = alloca i32, align 4
  %3 = alloca i32, align 4
  %4 = alloca i32, align 4
  %5 = alloca i32, align 4
  %6 = alloca i32, align 4
  %7 = alloca i32, align 4
  %8 = alloca i32, align 4
  %9 = alloca i32, align 4
  %10 = call i32 (i8*, ...) @__isoc99_scanf(i8* getelementptr inbounds ([6 x i8], [6 x i8]* @.str, i64 0, i64 0), i32* %1, i32* %2)
  store i32 1, i32* %6, align 4
  store i32 1, i32* %7, align 4
  store i32 1, i32* %4, align 4
  br label %11

11:                                               ; preds = %23, %0
  %12 = load i32, i32* %4, align 4
  %13 = load i32, i32* %1, align 4
  %14 = icmp sle i32 %12, %13
  br i1 %14, label %15, label %26

15:                                               ; preds = %11
  %16 = load i32, i32* %6, align 4
  %17 = load i32, i32* %1, align 4
  %18 = sub nsw i32 %17, 1
  %19 = mul nsw i32 %16, %18
  store i32 %19, i32* %6, align 4
  %20 = load i32, i32* %7, align 4
  %21 = load i32, i32* %1, align 4
  %22 = mul nsw i32 %20, %21
  store i32 %22, i32* %7, align 4
  br label %23

23:                                               ; preds = %15
  %24 = load i32, i32* %4, align 4
  %25 = add nsw i32 %24, 1
  store i32 %25, i32* %4, align 4
  br label %11

26:                                               ; preds = %11
  %27 = load i32, i32* %1, align 4
  %28 = sub nsw i32 %27, 1
  store i32 %28, i32* %3, align 4
  br label %29

29:                                               ; preds = %43, %26
  %30 = load i32, i32* %3, align 4
  store i32 %30, i32* %5, align 4
  %31 = load i32, i32* %5, align 4
  %32 = load i32, i32* %1, align 4
  %33 = sub nsw i32 %32, 1
  %34 = load i32, i32* %2, align 4
  %35 = mul nsw i32 %33, %34
  %36 = add nsw i32 %31, %35
  store i32 %36, i32* %8, align 4
  %37 = load i32, i32* %8, align 4
  %38 = load i32, i32* %6, align 4
  %39 = srem i32 %37, %38
  %40 = icmp eq i32 %39, 0
  br i1 %40, label %41, label %42

41:                                               ; preds = %29
  br label %46

42:                                               ; preds = %29
  br label %43

43:                                               ; preds = %42
  %44 = load i32, i32* %3, align 4
  %45 = add nsw i32 %44, 1
  store i32 %45, i32* %3, align 4
  br label %29

46:                                               ; preds = %41
  %47 = load i32, i32* %8, align 4
  %48 = load i32, i32* %6, align 4
  %49 = sdiv i32 %47, %48
  %50 = load i32, i32* %7, align 4
  %51 = mul nsw i32 %49, %50
  %52 = load i32, i32* %2, align 4
  %53 = load i32, i32* %1, align 4
  %54 = sub nsw i32 %53, 1
  %55 = mul nsw i32 %52, %54
  %56 = sub nsw i32 %51, %55
  store i32 %56, i32* %9, align 4
  %57 = load i32, i32* %9, align 4
  %58 = call i32 (i8*, ...) @printf(i8* getelementptr inbounds ([3 x i8], [3 x i8]* @.str.1, i64 0, i64 0), i32 %57)
  ret void
}

declare dso_local i32 @__isoc99_scanf(i8*, ...) #1

declare dso_local i32 @printf(i8*, ...) #1


!llvm.module.flags = !{!0}
!llvm.ident = !{!1}

!0 = !{i32 1, !"wchar_size", i32 4}
!1 = !{!"clang version 10.0.0-4ubuntu1 "}
